; Function Attrs: mustprogress nounwind uwtable
define internal noundef ptr @_ZN6evmone8advanced12_GLOBAL__N_12opIXadL_ZNS0_5instr4implILNS_6OpcodeE161EXadL_ZNS_5instr4core3logILm1EEENS_6ResultENS_8StackTopElRNS_14ExecutionStateEEEEE16evmc_status_codeRNS0_22AdvancedExecutionStateEEEEEPKNS0_11InstructionESI_SF_(ptr noundef readnone captures(ret: address, provenance) %0, ptr noundef nonnull align 8 dereferenceable(564) %1) #4 {
  %3 = getelementptr inbounds nuw i8, ptr %1, i64 552
  %.sroa.0.0.copyload.i = load ptr, ptr %3, align 8, !tbaa !57
  %4 = getelementptr inbounds nuw i8, ptr %1, i64 544
  %5 = load i64, ptr %4, align 8, !tbaa !106
  %6 = tail call { i32, i64 } @_ZN6evmone5instr4core3logILm1EEENS_6ResultENS_8StackTopElRNS_14ExecutionStateE(ptr %.sroa.0.0.copyload.i, i64 noundef %5, ptr noundef nonnull align 8 dereferenceable(564) %1) #26
  %7 = extractvalue { i32, i64 } %6, 0
  %8 = extractvalue { i32, i64 } %6, 1
  store i64 %8, ptr %4, align 8, !tbaa !106
  %9 = load ptr, ptr %3, align 8, !tbaa !67
  %10 = getelementptr inbounds i8, ptr %9, i64 -96
  call void @llvm.assume(i1 true) [ "align"(ptr %10, i64 32) ]
  %11 = ptrtoint ptr %10 to i64
  store i64 %11, ptr %3, align 8, !tbaa !57
  %.not.not = icmp eq i32 %7, 0
  br i1 %.not.not, label %14, label %12

12:                                               ; preds = %2
  %13 = getelementptr inbounds nuw i8, ptr %1, i64 120
  store i32 %7, ptr %13, align 8, !tbaa !3
  br label %14

14:                                               ; preds = %2, %12
  %15 = getelementptr inbounds nuw i8, ptr %0, i64 16
  %spec.select = select i1 %.not.not, ptr %15, ptr null
  ret ptr %spec.select
}